; ModuleID = '42/84.cpp'
source_filename = "42/84.cpp"
target datalayout = "e-m:e-p270:32:32-p271:32:32-p272:64:64-i64:64-f80:128-n8:16:32:64-S128"
target triple = "x86_64-pc-linux-gnu"

%"class.std::ios_base::Init" = type { i8 }
%"class.std::basic_istream" = type { i32 (...)**, i64, %"class.std::basic_ios" }
%"class.std::basic_ios" = type { %"class.std::ios_base", %"class.std::basic_ostream"*, i8, i8, %"class.std::basic_streambuf"*, %"class.std::ctype"*, %"class.std::num_put"*, %"class.std::num_get"* }
%"class.std::ios_base" = type { i32 (...)**, i64, i64, i32, i32, i32, %"struct.std::ios_base::_Callback_list"*, %"struct.std::ios_base::_Words", [8 x %"struct.std::ios_base::_Words"], i32, %"struct.std::ios_base::_Words"*, %"class.std::locale" }
%"struct.std::ios_base::_Callback_list" = type { %"struct.std::ios_base::_Callback_list"*, void (i32, %"class.std::ios_base"*, i32)*, i32, i32 }
%"struct.std::ios_base::_Words" = type { i8*, i64 }
%"class.std::locale" = type { %"class.std::locale::_Impl"* }
%"class.std::locale::_Impl" = type { i32, %"class.std::locale::facet"**, i64, %"class.std::locale::facet"**, i8** }
%"class.std::locale::facet" = type <{ i32 (...)**, i32, [4 x i8] }>
%"class.std::basic_ostream" = type { i32 (...)**, %"class.std::basic_ios" }
%"class.std::basic_streambuf" = type { i32 (...)**, i8*, i8*, i8*, i8*, i8*, i8*, %"class.std::locale" }
%"class.std::ctype" = type <{ %"class.std::locale::facet.base", [4 x i8], %struct.__locale_struct*, i8, [7 x i8], i32*, i32*, i16*, i8, [256 x i8], [256 x i8], i8, [6 x i8] }>
%"class.std::locale::facet.base" = type <{ i32 (...)**, i32 }>
%struct.__locale_struct = type { [13 x %struct.__locale_data*], i16*, i32*, i32*, [13 x i8*] }
%struct.__locale_data = type opaque
%"class.std::num_put" = type { %"class.std::locale::facet.base", [4 x i8] }
%"class.std::num_get" = type { %"class.std::locale::facet.base", [4 x i8] }

@_ZStL8__ioinit = internal global %"class.std::ios_base::Init" zeroinitializer, align 1
@__dso_handle = external hidden global i8
@_ZSt3cin = external dso_local global %"class.std::basic_istream", align 8
@_ZSt4cout = external dso_local global %"class.std::basic_ostream", align 8
@.str = private unnamed_addr constant [2 x i8] c" \00", align 1
@llvm.global_ctors = appending global [1 x { i32, void ()*, i8* }] [{ i32, void ()*, i8* } { i32 65535, void ()* @_GLOBAL__sub_I_84.cpp, i8* null }]

; Function Attrs: noinline uwtable
define internal void @__cxx_global_var_init() #0 section ".text.startup" {
  call void @_ZNSt8ios_base4InitC1Ev(%"class.std::ios_base::Init"* @_ZStL8__ioinit)
  %1 = call i32 @__cxa_atexit(void (i8*)* bitcast (void (%"class.std::ios_base::Init"*)* @_ZNSt8ios_base4InitD1Ev to void (i8*)*), i8* getelementptr inbounds (%"class.std::ios_base::Init", %"class.std::ios_base::Init"* @_ZStL8__ioinit, i32 0, i32 0), i8* @__dso_handle) #3
  ret void
}

declare dso_local void @_ZNSt8ios_base4InitC1Ev(%"class.std::ios_base::Init"*) unnamed_addr #1

; Function Attrs: nounwind
declare dso_local void @_ZNSt8ios_base4InitD1Ev(%"class.std::ios_base::Init"*) unnamed_addr #2

; Function Attrs: nounwind
declare dso_local i32 @__cxa_atexit(void (i8*)*, i8*, i8*) #3

; Function Attrs: noinline norecurse uwtable
define dso_local i32 @main() #4 {
  %1 = alloca i32, align 4
  %2 = alloca i32, align 4
  %3 = alloca i32, align 4
  %4 = alloca i32, align 4
  %5 = alloca i32, align 4
  %6 = alloca i32, align 4
  %7 = alloca i32, align 4
  %8 = alloca i32, align 4
  %9 = alloca i32, align 4
  %10 = alloca i32, align 4
  %11 = alloca i32, align 4
  %12 = alloca i32, align 4
  %13 = alloca [1000000 x i32], align 16
  store i32 0, i32* %1, align 4
  %14 = call dereferenceable(280) %"class.std::basic_istream"* @_ZNSirsERi(%"class.std::basic_istream"* @_ZSt3cin, i32* dereferenceable(4) %2)
  store i32 1, i32* %3, align 4
  br label %15

15:                                               ; preds = %24, %0
  %16 = load i32, i32* %3, align 4
  %17 = load i32, i32* %2, align 4
  %18 = icmp sle i32 %16, %17
  br i1 %18, label %19, label %27

19:                                               ; preds = %15
  %20 = load i32, i32* %3, align 4
  %21 = sext i32 %20 to i64
  %22 = getelementptr inbounds [1000000 x i32], [1000000 x i32]* %13, i64 0, i64 %21
  %23 = call dereferenceable(280) %"class.std::basic_istream"* @_ZNSirsERi(%"class.std::basic_istream"* @_ZSt3cin, i32* dereferenceable(4) %22)
  br label %24

24:                                               ; preds = %19
  %25 = load i32, i32* %3, align 4
  %26 = add nsw i32 %25, 1
  store i32 %26, i32* %3, align 4
  br label %15

27:                                               ; preds = %15
  %28 = call dereferenceable(280) %"class.std::basic_istream"* @_ZNSirsERi(%"class.std::basic_istream"* @_ZSt3cin, i32* dereferenceable(4) %12)
  store i32 0, i32* %5, align 4
  store i32 1, i32* %4, align 4
  br label %29

29:                                               ; preds = %51, %27
  %30 = load i32, i32* %4, align 4
  %31 = load i32, i32* %2, align 4
  %32 = icmp sle i32 %30, %31
  %33 = load i32, i32* %5, align 4
  %34 = icmp slt i32 %33, 1
  br i1 %34, label %35, label %54

35:                                               ; preds = %29
  %36 = load i32, i32* %4, align 4
  %37 = sext i32 %36 to i64
  %38 = getelementptr inbounds [1000000 x i32], [1000000 x i32]* %13, i64 0, i64 %37
  %39 = load i32, i32* %38, align 4
  %40 = load i32, i32* %12, align 4
  %41 = icmp ne i32 %39, %40
  br i1 %41, label %42, label %50

42:                                               ; preds = %35
  %43 = load i32, i32* %4, align 4
  %44 = sext i32 %43 to i64
  %45 = getelementptr inbounds [1000000 x i32], [1000000 x i32]* %13, i64 0, i64 %44
  %46 = load i32, i32* %45, align 4
  %47 = call dereferenceable(272) %"class.std::basic_ostream"* @_ZNSolsEi(%"class.std::basic_ostream"* @_ZSt4cout, i32 %46)
  %48 = load i32, i32* %5, align 4
  %49 = add nsw i32 %48, 1
  store i32 %49, i32* %5, align 4
  br label %50

50:                                               ; preds = %42, %35
  br label %51

51:                                               ; preds = %50
  %52 = load i32, i32* %4, align 4
  %53 = add nsw i32 %52, 1
  store i32 %53, i32* %4, align 4
  br label %29

54:                                               ; preds = %29
  %55 = load i32, i32* %4, align 4
  store i32 %55, i32* %6, align 4
  br label %56

56:                                               ; preds = %75, %54
  %57 = load i32, i32* %6, align 4
  %58 = load i32, i32* %2, align 4
  %59 = icmp sle i32 %57, %58
  br i1 %59, label %60, label %78

60:                                               ; preds = %56
  %61 = load i32, i32* %6, align 4
  %62 = sext i32 %61 to i64
  %63 = getelementptr inbounds [1000000 x i32], [1000000 x i32]* %13, i64 0, i64 %62
  %64 = load i32, i32* %63, align 4
  %65 = load i32, i32* %12, align 4
  %66 = icmp ne i32 %64, %65
  br i1 %66, label %67, label %74

67:                                               ; preds = %60
  %68 = call dereferenceable(272) %"class.std::basic_ostream"* @_ZStlsISt11char_traitsIcEERSt13basic_ostreamIcT_ES5_PKc(%"class.std::basic_ostream"* dereferenceable(272) @_ZSt4cout, i8* getelementptr inbounds ([2 x i8], [2 x i8]* @.str, i64 0, i64 0))
  %69 = load i32, i32* %6, align 4
  %70 = sext i32 %69 to i64
  %71 = getelementptr inbounds [1000000 x i32], [1000000 x i32]* %13, i64 0, i64 %70
  %72 = load i32, i32* %71, align 4
  %73 = call dereferenceable(272) %"class.std::basic_ostream"* @_ZNSolsEi(%"class.std::basic_ostream"* %68, i32 %72)
  br label %74

74:                                               ; preds = %67, %60
  br label %75

75:                                               ; preds = %74
  %76 = load i32, i32* %6, align 4
  %77 = add nsw i32 %76, 1
  store i32 %77, i32* %6, align 4
  br label %56

78:                                               ; preds = %56
  ret i32 0
}

declare dso_local dereferenceable(280) %"class.std::basic_istream"* @_ZNSirsERi(%"class.std::basic_istream"*, i32* dereferenceable(4)) #1

declare dso_local dereferenceable(272) %"class.std::basic_ostream"* @_ZNSolsEi(%"class.std::basic_ostream"*, i32) #1

declare dso_local dereferenceable(272) %"class.std::basic_ostream"* @_ZStlsISt11char_traitsIcEERSt13basic_ostreamIcT_ES5_PKc(%"class.std::basic_ostream"* dereferenceable(272), i8*) #1

; Function Attrs: noinline uwtable
define internal void @_GLOBAL__sub_I_84.cpp() #0 section ".text.startup" {
  call void @__cxx_global_var_init()
  ret void
}


!llvm.module.flags = !{!0}
!llvm.ident = !{!1}

!0 = !{i32 1, !"wchar_size", i32 4}
!1 = !{!"clang version 10.0.0-4ubuntu1 "}
